; Function Attrs: mustprogress uwtable
define internal fastcc void @_ZN32pxrInternal_v0_24__pxrReserved__12_GLOBAL__N_133_Vec4fArrayToVec4dArrayDataSource3NewIJSt10shared_ptrINS_24HdTypedSampledDataSourceINS_7VtArrayINS_7GfVec4fEEEEEEEEES3_IS1_EDpOT_(ptr dead_on_unwind noalias nocapture writable writeonly align 8 %0, ptr %.0.val, ptr %.8.val) unnamed_addr #0 align 2 personality ptr @__gxx_personality_v0 {
  %2 = tail call noalias noundef nonnull dereferenceable(24) ptr @_Znwm(i64 noundef 24) #21
  store ptr getelementptr inbounds inrange(-16, 40) (i8, ptr @_ZTVN32pxrInternal_v0_24__pxrReserved__12_GLOBAL__N_133_Vec4fArrayToVec4dArrayDataSourceE, i64 16), ptr %2, align 8
  %3 = getelementptr inbounds nuw i8, ptr %2, i64 8
  store ptr %.0.val, ptr %3, align 8
  %4 = getelementptr inbounds i8, ptr %2, i64 16
  store ptr %.8.val, ptr %4, align 8
  %.not.i.i.i.i = icmp eq ptr %.8.val, null
  br i1 %.not.i.i.i.i, label %_ZN32pxrInternal_v0_24__pxrReserved__12_GLOBAL__N_133_Vec4fArrayToVec4dArrayDataSourceC2ERKSt10shared_ptrINS_24HdTypedSampledDataSourceINS_7VtArrayINS_7GfVec4fEEEEEE.exit, label %5

5:                                                ; preds = %1
  %6 = getelementptr inbounds nuw i8, ptr %.8.val, i64 8
  %7 = load i8, ptr @__libc_single_threaded, align 1
  %.not.i.i.i.i.i = icmp eq i8 %7, 0
  br i1 %.not.i.i.i.i.i, label %11, label %8

8:                                                ; preds = %5
  %9 = load i32, ptr %6, align 4
  %10 = add nsw i32 %9, 1
  store i32 %10, ptr %6, align 4
  br label %_ZN32pxrInternal_v0_24__pxrReserved__12_GLOBAL__N_133_Vec4fArrayToVec4dArrayDataSourceC2ERKSt10shared_ptrINS_24HdTypedSampledDataSourceINS_7VtArrayINS_7GfVec4fEEEEEE.exit

11:                                               ; preds = %5
  %12 = atomicrmw volatile add ptr %6, i32 1 acq_rel, align 4
  br label %_ZN32pxrInternal_v0_24__pxrReserved__12_GLOBAL__N_133_Vec4fArrayToVec4dArrayDataSourceC2ERKSt10shared_ptrINS_24HdTypedSampledDataSourceINS_7VtArrayINS_7GfVec4fEEEEEE.exit

_ZN32pxrInternal_v0_24__pxrReserved__12_GLOBAL__N_133_Vec4fArrayToVec4dArrayDataSourceC2ERKSt10shared_ptrINS_24HdTypedSampledDataSourceINS_7VtArrayINS_7GfVec4fEEEEEE.exit: ; preds = %1, %8, %11
  store ptr %2, ptr %0, align 8
  %13 = getelementptr inbounds nuw i8, ptr %0, i64 8
  store ptr null, ptr %13, align 8
  %14 = invoke noalias noundef nonnull dereferenceable(24) ptr @_Znwm(i64 noundef 24) #21
          to label %_ZNSt10shared_ptrIN32pxrInternal_v0_24__pxrReserved__12_GLOBAL__N_133_Vec4fArrayToVec4dArrayDataSourceEEC2IS2_vEEPT_.exit unwind label %15

15:                                               ; preds = %_ZN32pxrInternal_v0_24__pxrReserved__12_GLOBAL__N_133_Vec4fArrayToVec4dArrayDataSourceC2ERKSt10shared_ptrINS_24HdTypedSampledDataSourceINS_7VtArrayINS_7GfVec4fEEEEEE.exit
  %16 = landingpad { ptr, i32 }
          catch ptr null
  %17 = extractvalue { ptr, i32 } %16, 0
  %18 = tail call ptr @__cxa_begin_catch(ptr %17) #18
  %19 = load ptr, ptr %2, align 8
  %20 = getelementptr inbounds i8, ptr %19, i64 8
  %21 = load ptr, ptr %20, align 8
  tail call void %21(ptr noundef nonnull align 8 dereferenceable(24) %2) #18
  invoke void @__cxa_rethrow() #20
          to label %28 unwind label %22

22:                                               ; preds = %15
  %23 = landingpad { ptr, i32 }
          cleanup
  invoke void @__cxa_end_catch()
          to label %24 unwind label %25

24:                                               ; preds = %22
  resume { ptr, i32 } %23

25:                                               ; preds = %22
  %26 = landingpad { ptr, i32 }
          catch ptr null
  %27 = extractvalue { ptr, i32 } %26, 0
  tail call void @__clang_call_terminate(ptr %27) #19
  unreachable

28:                                               ; preds = %15
  unreachable

_ZNSt10shared_ptrIN32pxrInternal_v0_24__pxrReserved__12_GLOBAL__N_133_Vec4fArrayToVec4dArrayDataSourceEEC2IS2_vEEPT_.exit: ; preds = %_ZN32pxrInternal_v0_24__pxrReserved__12_GLOBAL__N_133_Vec4fArrayToVec4dArrayDataSourceC2ERKSt10shared_ptrINS_24HdTypedSampledDataSourceINS_7VtArrayINS_7GfVec4fEEEEEE.exit
  %29 = getelementptr inbounds nuw i8, ptr %14, i64 8
  store i32 1, ptr %29, align 8
  %30 = getelementptr inbounds nuw i8, ptr %14, i64 12
  store i32 1, ptr %30, align 4
  store ptr getelementptr inbounds inrange(-16, 40) (i8, ptr @_ZTVSt15_Sp_counted_ptrIPN32pxrInternal_v0_24__pxrReserved__12_GLOBAL__N_133_Vec4fArrayToVec4dArrayDataSourceELN9__gnu_cxx12_Lock_policyE2EE, i64 16), ptr %14, align 8
  %31 = getelementptr inbounds nuw i8, ptr %14, i64 16
  store ptr %2, ptr %31, align 8
  store ptr %14, ptr %13, align 8
  ret void
}